target datalayout = "e-m:e-p270:32:32-p271:32:32-p272:64:64-i64:64-i128:128-f80:128-n8:16:32:64-S128"
target triple = "x86_64-unknown-linux-gnu"

%struct.btInfMaskConverter = type { %union.anon }
%union.anon = type { float }

$_ZN18btInfMaskConverterC2Ei = comdat any

$_ZN16btEmptyAlgorithmD2Ev = comdat any

$_ZN16btEmptyAlgorithmD0Ev = comdat any

$_ZN16btEmptyAlgorithm22getAllContactManifoldsER20btAlignedObjectArrayIP20btPersistentManifoldE = comdat any

$_ZN20btCollisionAlgorithmD2Ev = comdat any

$_ZTS20btCollisionAlgorithm = comdat any

$_ZTI20btCollisionAlgorithm = comdat any

@_ZL14btInfinityMask = internal global %struct.btInfMaskConverter zeroinitializer, align 4
@_ZTV16btEmptyAlgorithm = dso_local unnamed_addr constant { [7 x ptr] } { [7 x ptr] [ptr null, ptr @_ZTI16btEmptyAlgorithm, ptr @_ZN16btEmptyAlgorithmD2Ev, ptr @_ZN16btEmptyAlgorithmD0Ev, ptr @_ZN16btEmptyAlgorithm16processCollisionEPK24btCollisionObjectWrapperS2_RK16btDispatcherInfoP16btManifoldResult, ptr @_ZN16btEmptyAlgorithm21calculateTimeOfImpactEP17btCollisionObjectS1_RK16btDispatcherInfoP16btManifoldResult, ptr @_ZN16btEmptyAlgorithm22getAllContactManifoldsER20btAlignedObjectArrayIP20btPersistentManifoldE] }, align 8
@_ZTVN10__cxxabiv120__si_class_type_infoE = external global [0 x ptr]
@_ZTS16btEmptyAlgorithm = dso_local constant [19 x i8] c"16btEmptyAlgorithm\00", align 1
@_ZTVN10__cxxabiv117__class_type_infoE = external global [0 x ptr]
@_ZTS20btCollisionAlgorithm = linkonce_odr dso_local constant [23 x i8] c"20btCollisionAlgorithm\00", comdat, align 1
@_ZTI20btCollisionAlgorithm = linkonce_odr dso_local constant { ptr, ptr } { ptr getelementptr inbounds (ptr, ptr @_ZTVN10__cxxabiv117__class_type_infoE, i64 2), ptr @_ZTS20btCollisionAlgorithm }, comdat, align 8
@_ZTI16btEmptyAlgorithm = dso_local constant { ptr, ptr, ptr } { ptr getelementptr inbounds (ptr, ptr @_ZTVN10__cxxabiv120__si_class_type_infoE, i64 2), ptr @_ZTS16btEmptyAlgorithm, ptr @_ZTI20btCollisionAlgorithm }, align 8
@llvm.global_ctors = appending global [1 x { i32, ptr, ptr }] [{ i32, ptr, ptr } { i32 65535, ptr @_GLOBAL__sub_I_btEmptyCollisionAlgorithm.cpp, ptr null }]

@_ZN16btEmptyAlgorithmC1ERK36btCollisionAlgorithmConstructionInfo = dso_local unnamed_addr alias void (ptr, ptr), ptr @_ZN16btEmptyAlgorithmC2ERK36btCollisionAlgorithmConstructionInfo

; Function Attrs: uwtable
define internal void @__cxx_global_var_init() #0 section ".text.startup" {
entry:
  call void @_ZN18btInfMaskConverterC2Ei(ptr noundef nonnull align 4 dereferenceable(4) @_ZL14btInfinityMask, i32 noundef 2139095040)
  ret void
}

; Function Attrs: mustprogress nounwind uwtable
define linkonce_odr dso_local void @_ZN18btInfMaskConverterC2Ei(ptr noundef nonnull align 4 dereferenceable(4) %this, i32 noundef %_mask) unnamed_addr #1 comdat align 2 {
entry:
  %this.addr = alloca ptr, align 8
  %_mask.addr = alloca i32, align 4
  store ptr %this, ptr %this.addr, align 8
  store i32 %_mask, ptr %_mask.addr, align 4
  %this1 = load ptr, ptr %this.addr, align 8
  %0 = getelementptr inbounds %struct.btInfMaskConverter, ptr %this1, i32 0, i32 0
  %1 = load i32, ptr %_mask.addr, align 4
  store i32 %1, ptr %0, align 4
  ret void
}

; Function Attrs: mustprogress uwtable
define dso_local void @_ZN16btEmptyAlgorithmC2ERK36btCollisionAlgorithmConstructionInfo(ptr noundef nonnull align 8 dereferenceable(16) %this, ptr noundef nonnull align 8 dereferenceable(16) %ci) unnamed_addr #2 align 2 {
entry:
  %this.addr = alloca ptr, align 8
  %ci.addr = alloca ptr, align 8
  store ptr %this, ptr %this.addr, align 8
  store ptr %ci, ptr %ci.addr, align 8
  %this1 = load ptr, ptr %this.addr, align 8
  %0 = load ptr, ptr %ci.addr, align 8
  call void @_ZN20btCollisionAlgorithmC2ERK36btCollisionAlgorithmConstructionInfo(ptr noundef nonnull align 8 dereferenceable(16) %this1, ptr noundef nonnull align 8 dereferenceable(16) %0)
  store ptr getelementptr inbounds ({ [7 x ptr] }, ptr @_ZTV16btEmptyAlgorithm, i32 0, i32 0, i32 2), ptr %this1, align 8
  ret void
}

declare void @_ZN20btCollisionAlgorithmC2ERK36btCollisionAlgorithmConstructionInfo(ptr noundef nonnull align 8 dereferenceable(16), ptr noundef nonnull align 8 dereferenceable(16)) unnamed_addr #3

; Function Attrs: mustprogress nounwind uwtable
define dso_local void @_ZN16btEmptyAlgorithm16processCollisionEPK24btCollisionObjectWrapperS2_RK16btDispatcherInfoP16btManifoldResult(ptr noundef nonnull align 8 dereferenceable(16) %this, ptr noundef %0, ptr noundef %1, ptr noundef nonnull align 8 dereferenceable(49) %2, ptr noundef %3) unnamed_addr #1 align 2 {
entry:
  %this.addr = alloca ptr, align 8
  %.addr = alloca ptr, align 8
  %.addr1 = alloca ptr, align 8
  %.addr2 = alloca ptr, align 8
  %.addr3 = alloca ptr, align 8
  store ptr %this, ptr %this.addr, align 8
  store ptr %0, ptr %.addr, align 8
  store ptr %1, ptr %.addr1, align 8
  store ptr %2, ptr %.addr2, align 8
  store ptr %3, ptr %.addr3, align 8
  ret void
}

; Function Attrs: mustprogress nounwind uwtable
define dso_local noundef float @_ZN16btEmptyAlgorithm21calculateTimeOfImpactEP17btCollisionObjectS1_RK16btDispatcherInfoP16btManifoldResult(ptr noundef nonnull align 8 dereferenceable(16) %this, ptr noundef %0, ptr noundef %1, ptr noundef nonnull align 8 dereferenceable(49) %2, ptr noundef %3) unnamed_addr #1 align 2 {
entry:
  %this.addr = alloca ptr, align 8
  %.addr = alloca ptr, align 8
  %.addr1 = alloca ptr, align 8
  %.addr2 = alloca ptr, align 8
  %.addr3 = alloca ptr, align 8
  store ptr %this, ptr %this.addr, align 8
  store ptr %0, ptr %.addr, align 8
  store ptr %1, ptr %.addr1, align 8
  store ptr %2, ptr %.addr2, align 8
  store ptr %3, ptr %.addr3, align 8
  ret float 1.000000e+00
}

; Function Attrs: mustprogress nounwind uwtable
define linkonce_odr dso_local void @_ZN16btEmptyAlgorithmD2Ev(ptr noundef nonnull align 8 dereferenceable(16) %this) unnamed_addr #1 comdat align 2 {
entry:
  %this.addr = alloca ptr, align 8
  store ptr %this, ptr %this.addr, align 8
  %this1 = load ptr, ptr %this.addr, align 8
  call void @_ZN20btCollisionAlgorithmD2Ev(ptr noundef nonnull align 8 dereferenceable(16) %this1) #5
  ret void
}

; Function Attrs: mustprogress nounwind uwtable
define linkonce_odr dso_local void @_ZN16btEmptyAlgorithmD0Ev(ptr noundef nonnull align 8 dereferenceable(16) %this) unnamed_addr #1 comdat align 2 {
entry:
  %this.addr = alloca ptr, align 8
  store ptr %this, ptr %this.addr, align 8
  %this1 = load ptr, ptr %this.addr, align 8
  call void @_ZN16btEmptyAlgorithmD2Ev(ptr noundef nonnull align 8 dereferenceable(16) %this1) #5
  call void @_ZdlPv(ptr noundef %this1) #6
  ret void
}

; Function Attrs: mustprogress nounwind uwtable
define linkonce_odr dso_local void @_ZN16btEmptyAlgorithm22getAllContactManifoldsER20btAlignedObjectArrayIP20btPersistentManifoldE(ptr noundef nonnull align 8 dereferenceable(16) %this, ptr noundef nonnull align 8 dereferenceable(25) %manifoldArray) unnamed_addr #1 comdat align 2 {
entry:
  %this.addr = alloca ptr, align 8
  %manifoldArray.addr = alloca ptr, align 8
  store ptr %this, ptr %this.addr, align 8
  store ptr %manifoldArray, ptr %manifoldArray.addr, align 8
  ret void
}

; Function Attrs: mustprogress nounwind uwtable
define linkonce_odr dso_local void @_ZN20btCollisionAlgorithmD2Ev(ptr noundef nonnull align 8 dereferenceable(16) %this) unnamed_addr #1 comdat align 2 {
entry:
  %this.addr = alloca ptr, align 8
  store ptr %this, ptr %this.addr, align 8
  ret void
}

; Function Attrs: nobuiltin nounwind
declare void @_ZdlPv(ptr noundef) #4

; Function Attrs: uwtable
define internal void @_GLOBAL__sub_I_btEmptyCollisionAlgorithm.cpp() #0 section ".text.startup" {
entry:
  call void @__cxx_global_var_init()
  ret void
}


!llvm.module.flags = !{!0, !1, !2, !3, !4}

!0 = !{i32 1, !"wchar_size", i32 4}
!1 = !{i32 8, !"PIC Level", i32 2}
!2 = !{i32 7, !"PIE Level", i32 2}
!3 = !{i32 7, !"uwtable", i32 2}
!4 = !{i32 7, !"frame-pointer", i32 2}
