; ModuleID = 'bench/bullet3/original/btEmptyCollisionAlgorithm.ll'
source_filename = "bench/bullet3/original/btEmptyCollisionAlgorithm.ll"
target datalayout = "e-m:e-p270:32:32-p271:32:32-p272:64:64-i64:64-i128:128-f80:128-n8:16:32:64-S128"
target triple = "x86_64-unknown-linux-gnu"

$_ZN16btEmptyAlgorithmD2Ev = comdat any

$_ZN16btEmptyAlgorithmD0Ev = comdat any

$_ZN16btEmptyAlgorithm22getAllContactManifoldsER20btAlignedObjectArrayIP20btPersistentManifoldE = comdat any

$_ZTS20btCollisionAlgorithm = comdat any

$_ZTI20btCollisionAlgorithm = comdat any

@_ZTV16btEmptyAlgorithm = dso_local unnamed_addr constant { [7 x ptr] } { [7 x ptr] [ptr null, ptr @_ZTI16btEmptyAlgorithm, ptr @_ZN16btEmptyAlgorithmD2Ev, ptr @_ZN16btEmptyAlgorithmD0Ev, ptr @_ZN16btEmptyAlgorithm16processCollisionEPK24btCollisionObjectWrapperS2_RK16btDispatcherInfoP16btManifoldResult, ptr @_ZN16btEmptyAlgorithm21calculateTimeOfImpactEP17btCollisionObjectS1_RK16btDispatcherInfoP16btManifoldResult, ptr @_ZN16btEmptyAlgorithm22getAllContactManifoldsER20btAlignedObjectArrayIP20btPersistentManifoldE] }, align 8
@_ZTVN10__cxxabiv120__si_class_type_infoE = external global [0 x ptr]
@_ZTS16btEmptyAlgorithm = dso_local constant [19 x i8] c"16btEmptyAlgorithm\00", align 1
@_ZTVN10__cxxabiv117__class_type_infoE = external global [0 x ptr]
@_ZTS20btCollisionAlgorithm = linkonce_odr dso_local constant [23 x i8] c"20btCollisionAlgorithm\00", comdat, align 1
@_ZTI20btCollisionAlgorithm = linkonce_odr dso_local constant { ptr, ptr } { ptr getelementptr inbounds (ptr, ptr @_ZTVN10__cxxabiv117__class_type_infoE, i64 2), ptr @_ZTS20btCollisionAlgorithm }, comdat, align 8
@_ZTI16btEmptyAlgorithm = dso_local constant { ptr, ptr, ptr } { ptr getelementptr inbounds (ptr, ptr @_ZTVN10__cxxabiv120__si_class_type_infoE, i64 2), ptr @_ZTS16btEmptyAlgorithm, ptr @_ZTI20btCollisionAlgorithm }, align 8
@llvm.global_ctors = appending global [0 x { i32, ptr, ptr }] zeroinitializer

@_ZN16btEmptyAlgorithmC1ERK36btCollisionAlgorithmConstructionInfo = dso_local unnamed_addr alias void (ptr, ptr), ptr @_ZN16btEmptyAlgorithmC2ERK36btCollisionAlgorithmConstructionInfo

; Function Attrs: mustprogress uwtable
define dso_local void @_ZN16btEmptyAlgorithmC2ERK36btCollisionAlgorithmConstructionInfo(ptr noundef nonnull align 8 dereferenceable(16) %this, ptr noundef nonnull align 8 dereferenceable(16) %ci) unnamed_addr #0 align 2 {
entry:
  tail call void @_ZN20btCollisionAlgorithmC2ERK36btCollisionAlgorithmConstructionInfo(ptr noundef nonnull align 8 dereferenceable(16) %this, ptr noundef nonnull align 8 dereferenceable(16) %ci)
  store ptr getelementptr inbounds ({ [7 x ptr] }, ptr @_ZTV16btEmptyAlgorithm, i64 0, i32 0, i64 2), ptr %this, align 8
  ret void
}

declare void @_ZN20btCollisionAlgorithmC2ERK36btCollisionAlgorithmConstructionInfo(ptr noundef nonnull align 8 dereferenceable(16), ptr noundef nonnull align 8 dereferenceable(16)) unnamed_addr #1

; Function Attrs: mustprogress nofree norecurse nosync nounwind willreturn memory(none) uwtable
define dso_local void @_ZN16btEmptyAlgorithm16processCollisionEPK24btCollisionObjectWrapperS2_RK16btDispatcherInfoP16btManifoldResult(ptr nocapture nonnull readnone align 8 %this, ptr nocapture readnone %0, ptr nocapture readnone %1, ptr nocapture nonnull readnone align 8 %2, ptr nocapture readnone %3) unnamed_addr #2 align 2 {
entry:
  ret void
}

; Function Attrs: mustprogress nofree norecurse nosync nounwind willreturn memory(none) uwtable
define dso_local noundef float @_ZN16btEmptyAlgorithm21calculateTimeOfImpactEP17btCollisionObjectS1_RK16btDispatcherInfoP16btManifoldResult(ptr nocapture nonnull readnone align 8 %this, ptr nocapture readnone %0, ptr nocapture readnone %1, ptr nocapture nonnull readnone align 8 %2, ptr nocapture readnone %3) unnamed_addr #2 align 2 {
entry:
  ret float 1.000000e+00
}

; Function Attrs: mustprogress nounwind uwtable
define linkonce_odr dso_local void @_ZN16btEmptyAlgorithmD2Ev(ptr noundef nonnull align 8 dereferenceable(16) %this) unnamed_addr #3 comdat align 2 {
entry:
  ret void
}

; Function Attrs: mustprogress nounwind uwtable
define linkonce_odr dso_local void @_ZN16btEmptyAlgorithmD0Ev(ptr noundef nonnull align 8 dereferenceable(16) %this) unnamed_addr #3 comdat align 2 {
entry:
  tail call void @_ZdlPv(ptr noundef nonnull %this) #5
  ret void
}

; Function Attrs: mustprogress nounwind uwtable
define linkonce_odr dso_local void @_ZN16btEmptyAlgorithm22getAllContactManifoldsER20btAlignedObjectArrayIP20btPersistentManifoldE(ptr noundef nonnull align 8 dereferenceable(16) %this, ptr noundef nonnull align 8 dereferenceable(25) %manifoldArray) unnamed_addr #3 comdat align 2 {
entry:
  ret void
}

; Function Attrs: nobuiltin nounwind
declare void @_ZdlPv(ptr noundef) local_unnamed_addr #4


!llvm.module.flags = !{!0, !1, !2, !3, !4}

!0 = !{i32 1, !"wchar_size", i32 4}
!1 = !{i32 8, !"PIC Level", i32 2}
!2 = !{i32 7, !"PIE Level", i32 2}
!3 = !{i32 7, !"uwtable", i32 2}
!4 = !{i32 7, !"frame-pointer", i32 2}
